; Function Attrs: nounwind uwtable
define dso_local range(i32 0, 16384) i32 @calculateKeySlot(ptr noundef %0) local_unnamed_addr #0 {
  %2 = load i32, ptr getelementptr inbounds nuw (i8, ptr @server, i64 7888), align 8, !tbaa !75
  %.not = icmp eq i32 %2, 0
  br i1 %.not, label %57, label %3

3:                                                ; preds = %1
  %4 = getelementptr inbounds i8, ptr %0, i64 -1
  %5 = load i8, ptr %4, align 1, !tbaa !76
  %6 = zext i8 %5 to i32
  %7 = and i32 %6, 7
  switch i32 %7, label %._crit_edge.thread.i [
    i32 0, label %8
    i32 1, label %11
    i32 2, label %15
    i32 3, label %19
    i32 4, label %23
  ]

8:                                                ; preds = %3
  %9 = lshr i32 %6, 3
  %10 = zext nneg i32 %9 to i64
  br label %sdslen.exit

11:                                               ; preds = %3
  %12 = getelementptr inbounds i8, ptr %0, i64 -3
  %13 = load i8, ptr %12, align 1, !tbaa !76
  %14 = zext i8 %13 to i64
  br label %sdslen.exit

15:                                               ; preds = %3
  %16 = getelementptr inbounds i8, ptr %0, i64 -5
  %17 = load i16, ptr %16, align 1, !tbaa !77
  %18 = zext i16 %17 to i64
  br label %sdslen.exit

19:                                               ; preds = %3
  %20 = getelementptr inbounds i8, ptr %0, i64 -9
  %21 = load i32, ptr %20, align 1, !tbaa !79
  %22 = zext i32 %21 to i64
  br label %sdslen.exit

23:                                               ; preds = %3
  %24 = getelementptr inbounds i8, ptr %0, i64 -17
  %25 = load i64, ptr %24, align 1, !tbaa !17
  br label %sdslen.exit

sdslen.exit:                                      ; preds = %8, %11, %15, %19, %23
  %.0.i = phi i64 [ %25, %23 ], [ %22, %19 ], [ %18, %15 ], [ %14, %11 ], [ %10, %8 ]
  %26 = trunc i64 %.0.i to i32
  %27 = icmp sgt i32 %26, 0
  br i1 %27, label %.lr.ph.preheader.i, label %._crit_edge.i

.lr.ph.preheader.i:                               ; preds = %sdslen.exit
  %wide.trip.count.i = and i64 %.0.i, 2147483647
  br label %.lr.ph.i

.lr.ph.i:                                         ; preds = %31, %.lr.ph.preheader.i
  %indvars.iv.i = phi i64 [ 0, %.lr.ph.preheader.i ], [ %indvars.iv.next.i, %31 ]
  %28 = getelementptr inbounds nuw i8, ptr %0, i64 %indvars.iv.i
  %29 = load i8, ptr %28, align 1, !tbaa !76
  %30 = icmp eq i8 %29, 123
  br i1 %30, label %._crit_edge.loopexit.i, label %31

31:                                               ; preds = %.lr.ph.i
  %indvars.iv.next.i = add nuw nsw i64 %indvars.iv.i, 1
  %exitcond.not.i = icmp eq i64 %indvars.iv.next.i, %wide.trip.count.i
  br i1 %exitcond.not.i, label %._crit_edge.thread.i, label %.lr.ph.i, !llvm.loop !80

._crit_edge.loopexit.i:                           ; preds = %.lr.ph.i
  %32 = trunc nuw nsw i64 %indvars.iv.i to i32
  br label %._crit_edge.i

._crit_edge.i:                                    ; preds = %._crit_edge.loopexit.i, %sdslen.exit
  %.025.lcssa.i = phi i32 [ 0, %sdslen.exit ], [ %32, %._crit_edge.loopexit.i ]
  %33 = icmp eq i32 %.025.lcssa.i, %26
  br i1 %33, label %._crit_edge.thread.i, label %36, !prof !82

._crit_edge.thread.i:                             ; preds = %31, %3, %._crit_edge.i
  %34 = phi i32 [ %26, %._crit_edge.i ], [ 0, %3 ], [ %26, %31 ]
  %35 = tail call zeroext i16 @crc16(ptr noundef nonnull %0, i32 noundef %34) #20
  br label %keyHashSlot.exit

36:                                               ; preds = %._crit_edge.i
  %37 = add nuw nsw i32 %.025.lcssa.i, 1
  %38 = icmp slt i32 %37, %26
  br i1 %38, label %.lr.ph33.preheader.i, label %._crit_edge34.thread.i

.lr.ph33.preheader.i:                             ; preds = %36
  %39 = zext i32 %37 to i64
  br label %.lr.ph33.i

.lr.ph33.i:                                       ; preds = %43, %.lr.ph33.preheader.i
  %indvars.iv39.i = phi i64 [ %39, %.lr.ph33.preheader.i ], [ %indvars.iv.next40.i, %43 ]
  %40 = getelementptr inbounds nuw i8, ptr %0, i64 %indvars.iv39.i
  %41 = load i8, ptr %40, align 1, !tbaa !76
  %42 = icmp eq i8 %41, 125
  br i1 %42, label %._crit_edge34.i, label %43

43:                                               ; preds = %.lr.ph33.i
  %indvars.iv.next40.i = add nuw nsw i64 %indvars.iv39.i, 1
  %44 = trunc nuw i64 %indvars.iv.next40.i to i32
  %45 = icmp sgt i32 %26, %44
  br i1 %45, label %.lr.ph33.i, label %._crit_edge34.thread.i, !llvm.loop !83

._crit_edge34.i:                                  ; preds = %.lr.ph33.i
  %46 = trunc nuw i64 %indvars.iv39.i to i32
  %47 = icmp eq i32 %26, %46
  %48 = icmp eq i32 %37, %46
  %or.cond.i = or i1 %47, %48
  br i1 %or.cond.i, label %._crit_edge34.thread.i, label %50

._crit_edge34.thread.i:                           ; preds = %43, %._crit_edge34.i, %36
  %49 = tail call zeroext i16 @crc16(ptr noundef nonnull %0, i32 noundef %26) #20
  br label %keyHashSlot.exit

50:                                               ; preds = %._crit_edge34.i
  %51 = zext nneg i32 %.025.lcssa.i to i64
  %52 = getelementptr inbounds nuw i8, ptr %0, i64 %51
  %53 = getelementptr inbounds nuw i8, ptr %52, i64 1
  %54 = xor i32 %.025.lcssa.i, -1
  %55 = add nsw i32 %46, %54
  %56 = tail call zeroext i16 @crc16(ptr noundef nonnull %53, i32 noundef %55) #20
  br label %keyHashSlot.exit

keyHashSlot.exit:                                 ; preds = %._crit_edge.thread.i, %._crit_edge34.thread.i, %50
  %.026.in.in.i = phi i16 [ %35, %._crit_edge.thread.i ], [ %49, %._crit_edge34.thread.i ], [ %56, %50 ]
  %.026.in.i = and i16 %.026.in.in.i, 16383
  %.026.i = zext nneg i16 %.026.in.i to i32
  br label %57

57:                                               ; preds = %1, %keyHashSlot.exit
  %58 = phi i32 [ %.026.i, %keyHashSlot.exit ], [ 0, %1 ]
  ret i32 %58
}